; ModuleID = '8/1388.c'
source_filename = "8/1388.c"
target datalayout = "e-m:e-p270:32:32-p271:32:32-p272:64:64-i64:64-f80:128-n8:16:32:64-S128"
target triple = "x86_64-pc-linux-gnu"

@i = common dso_local global i32 0, align 4
@.str = private unnamed_addr constant [3 x i8] c"%d\00", align 1
@a = common dso_local global [100 x i32] zeroinitializer, align 16
@b = common dso_local global [100 x i32] zeroinitializer, align 16
@.str.1 = private unnamed_addr constant [4 x i8] c"%d \00", align 1
@j = common dso_local global i32 0, align 4
@t = common dso_local global i32 0, align 4
@.str.2 = private unnamed_addr constant [6 x i8] c"%d %d\00", align 1
@n = common dso_local global i32 0, align 4
@m = common dso_local global i32 0, align 4

; Function Attrs: noinline nounwind uwtable
define dso_local void @shuru(i32 %0, i32 %1) #0 {
  %3 = alloca i32, align 4
  %4 = alloca i32, align 4
  store i32 %0, i32* %3, align 4
  store i32 %1, i32* %4, align 4
  store i32 0, i32* @i, align 4
  br label %5

5:                                                ; preds = %14, %2
  %6 = load i32, i32* @i, align 4
  %7 = load i32, i32* %3, align 4
  %8 = icmp slt i32 %6, %7
  br i1 %8, label %9, label %17

9:                                                ; preds = %5
  %10 = load i32, i32* @i, align 4
  %11 = sext i32 %10 to i64
  %12 = getelementptr inbounds [100 x i32], [100 x i32]* @a, i64 0, i64 %11
  %13 = call i32 (i8*, ...) @__isoc99_scanf(i8* getelementptr inbounds ([3 x i8], [3 x i8]* @.str, i64 0, i64 0), i32* %12)
  br label %14

14:                                               ; preds = %9
  %15 = load i32, i32* @i, align 4
  %16 = add nsw i32 %15, 1
  store i32 %16, i32* @i, align 4
  br label %5

17:                                               ; preds = %5
  store i32 0, i32* @i, align 4
  br label %18

18:                                               ; preds = %27, %17
  %19 = load i32, i32* @i, align 4
  %20 = load i32, i32* %4, align 4
  %21 = icmp slt i32 %19, %20
  br i1 %21, label %22, label %30

22:                                               ; preds = %18
  %23 = load i32, i32* @i, align 4
  %24 = sext i32 %23 to i64
  %25 = getelementptr inbounds [100 x i32], [100 x i32]* @b, i64 0, i64 %24
  %26 = call i32 (i8*, ...) @__isoc99_scanf(i8* getelementptr inbounds ([3 x i8], [3 x i8]* @.str, i64 0, i64 0), i32* %25)
  br label %27

27:                                               ; preds = %22
  %28 = load i32, i32* @i, align 4
  %29 = add nsw i32 %28, 1
  store i32 %29, i32* @i, align 4
  br label %18

30:                                               ; preds = %18
  ret void
}

declare dso_local i32 @__isoc99_scanf(i8*, ...) #1

; Function Attrs: noinline nounwind uwtable
define dso_local void @shuchu(i32 %0, i32 %1) #0 {
  %3 = alloca i32, align 4
  %4 = alloca i32, align 4
  store i32 %0, i32* %3, align 4
  store i32 %1, i32* %4, align 4
  store i32 0, i32* @i, align 4
  br label %5

5:                                                ; preds = %15, %2
  %6 = load i32, i32* @i, align 4
  %7 = load i32, i32* %3, align 4
  %8 = icmp slt i32 %6, %7
  br i1 %8, label %9, label %18

9:                                                ; preds = %5
  %10 = load i32, i32* @i, align 4
  %11 = sext i32 %10 to i64
  %12 = getelementptr inbounds [100 x i32], [100 x i32]* @a, i64 0, i64 %11
  %13 = load i32, i32* %12, align 4
  %14 = call i32 (i8*, ...) @printf(i8* getelementptr inbounds ([4 x i8], [4 x i8]* @.str.1, i64 0, i64 0), i32 %13)
  br label %15

15:                                               ; preds = %9
  %16 = load i32, i32* @i, align 4
  %17 = add nsw i32 %16, 1
  store i32 %17, i32* @i, align 4
  br label %5

18:                                               ; preds = %5
  store i32 0, i32* @i, align 4
  br label %19

19:                                               ; preds = %30, %18
  %20 = load i32, i32* @i, align 4
  %21 = load i32, i32* %4, align 4
  %22 = sub nsw i32 %21, 1
  %23 = icmp slt i32 %20, %22
  br i1 %23, label %24, label %33

24:                                               ; preds = %19
  %25 = load i32, i32* @i, align 4
  %26 = sext i32 %25 to i64
  %27 = getelementptr inbounds [100 x i32], [100 x i32]* @b, i64 0, i64 %26
  %28 = load i32, i32* %27, align 4
  %29 = call i32 (i8*, ...) @printf(i8* getelementptr inbounds ([4 x i8], [4 x i8]* @.str.1, i64 0, i64 0), i32 %28)
  br label %30

30:                                               ; preds = %24
  %31 = load i32, i32* @i, align 4
  %32 = add nsw i32 %31, 1
  store i32 %32, i32* @i, align 4
  br label %19

33:                                               ; preds = %19
  %34 = load i32, i32* %4, align 4
  %35 = sub nsw i32 %34, 1
  %36 = sext i32 %35 to i64
  %37 = getelementptr inbounds [100 x i32], [100 x i32]* @b, i64 0, i64 %36
  %38 = load i32, i32* %37, align 4
  %39 = call i32 (i8*, ...) @printf(i8* getelementptr inbounds ([3 x i8], [3 x i8]* @.str, i64 0, i64 0), i32 %38)
  ret void
}

declare dso_local i32 @printf(i8*, ...) #1

; Function Attrs: noinline nounwind uwtable
define dso_local void @paixu(i32 %0, i32* %1) #0 {
  %3 = alloca i32, align 4
  %4 = alloca i32*, align 8
  store i32 %0, i32* %3, align 4
  store i32* %1, i32** %4, align 8
  store i32 0, i32* @i, align 4
  br label %5

5:                                                ; preds = %51, %2
  %6 = load i32, i32* @i, align 4
  %7 = load i32, i32* %3, align 4
  %8 = icmp slt i32 %6, %7
  br i1 %8, label %9, label %54

9:                                                ; preds = %5
  store i32 0, i32* @j, align 4
  br label %10

10:                                               ; preds = %47, %9
  %11 = load i32, i32* @j, align 4
  %12 = load i32, i32* @i, align 4
  %13 = icmp slt i32 %11, %12
  br i1 %13, label %14, label %50

14:                                               ; preds = %10
  %15 = load i32*, i32** %4, align 8
  %16 = load i32, i32* @i, align 4
  %17 = sext i32 %16 to i64
  %18 = getelementptr inbounds i32, i32* %15, i64 %17
  %19 = load i32, i32* %18, align 4
  %20 = load i32*, i32** %4, align 8
  %21 = load i32, i32* @j, align 4
  %22 = sext i32 %21 to i64
  %23 = getelementptr inbounds i32, i32* %20, i64 %22
  %24 = load i32, i32* %23, align 4
  %25 = icmp slt i32 %19, %24
  br i1 %25, label %26, label %46

26:                                               ; preds = %14
  %27 = load i32*, i32** %4, align 8
  %28 = load i32, i32* @i, align 4
  %29 = sext i32 %28 to i64
  %30 = getelementptr inbounds i32, i32* %27, i64 %29
  %31 = load i32, i32* %30, align 4
  store i32 %31, i32* @t, align 4
  %32 = load i32*, i32** %4, align 8
  %33 = load i32, i32* @j, align 4
  %34 = sext i32 %33 to i64
  %35 = getelementptr inbounds i32, i32* %32, i64 %34
  %36 = load i32, i32* %35, align 4
  %37 = load i32*, i32** %4, align 8
  %38 = load i32, i32* @i, align 4
  %39 = sext i32 %38 to i64
  %40 = getelementptr inbounds i32, i32* %37, i64 %39
  store i32 %36, i32* %40, align 4
  %41 = load i32, i32* @t, align 4
  %42 = load i32*, i32** %4, align 8
  %43 = load i32, i32* @j, align 4
  %44 = sext i32 %43 to i64
  %45 = getelementptr inbounds i32, i32* %42, i64 %44
  store i32 %41, i32* %45, align 4
  br label %46

46:                                               ; preds = %26, %14
  br label %47

47:                                               ; preds = %46
  %48 = load i32, i32* @j, align 4
  %49 = add nsw i32 %48, 1
  store i32 %49, i32* @j, align 4
  br label %10

50:                                               ; preds = %10
  br label %51

51:                                               ; preds = %50
  %52 = load i32, i32* @i, align 4
  %53 = add nsw i32 %52, 1
  store i32 %53, i32* @i, align 4
  br label %5

54:                                               ; preds = %5
  ret void
}

; Function Attrs: noinline nounwind uwtable
define dso_local i32 @main() #0 {
  %1 = call i32 (i8*, ...) @__isoc99_scanf(i8* getelementptr inbounds ([6 x i8], [6 x i8]* @.str.2, i64 0, i64 0), i32* @n, i32* @m)
  %2 = load i32, i32* @n, align 4
  %3 = load i32, i32* @m, align 4
  call void @shuru(i32 %2, i32 %3)
  %4 = load i32, i32* @n, align 4
  call void @paixu(i32 %4, i32* getelementptr inbounds ([100 x i32], [100 x i32]* @a, i64 0, i64 0))
  %5 = load i32, i32* @m, align 4
  call void @paixu(i32 %5, i32* getelementptr inbounds ([100 x i32], [100 x i32]* @b, i64 0, i64 0))
  %6 = load i32, i32* @n, align 4
  %7 = load i32, i32* @m, align 4
  call void @shuchu(i32 %6, i32 %7)
  ret i32 0
}


!llvm.module.flags = !{!0}
!llvm.ident = !{!1}

!0 = !{i32 1, !"wchar_size", i32 4}
!1 = !{!"clang version 10.0.0-4ubuntu1 "}
